target datalayout = "e-m:e-p270:32:32-p271:32:32-p272:64:64-i64:64-i128:128-f80:128-n8:16:32:64-S128"
target triple = "x86_64-pc-linux-gnu"

%struct.Plan = type { %"class.std::map", %class.EdgePriorityQueue, ptr, %"class.std::vector.3", i32, i32 }
%"class.std::map" = type { %"class.std::_Rb_tree" }
%"class.std::_Rb_tree" = type { %"struct.std::_Rb_tree<Edge *, std::pair<Edge *const, Plan::Want>, std::_Select1st<std::pair<Edge *const, Plan::Want>>, std::less<Edge *>>::_Rb_tree_impl" }
%"struct.std::_Rb_tree<Edge *, std::pair<Edge *const, Plan::Want>, std::_Select1st<std::pair<Edge *const, Plan::Want>>, std::less<Edge *>>::_Rb_tree_impl" = type { [8 x i8], %"struct.std::_Rb_tree_header" }
%"struct.std::_Rb_tree_header" = type { %"struct.std::_Rb_tree_node_base", i64 }
%"struct.std::_Rb_tree_node_base" = type { i32, ptr, ptr, ptr }
%class.EdgePriorityQueue = type { %"class.std::priority_queue.base", [7 x i8] }
%"class.std::priority_queue.base" = type <{ %"class.std::vector", i8 }>
%"class.std::vector" = type { %"struct.std::_Vector_base" }
%"struct.std::_Vector_base" = type { %"struct.std::_Vector_base<Edge *, std::allocator<Edge *>>::_Vector_impl" }
%"struct.std::_Vector_base<Edge *, std::allocator<Edge *>>::_Vector_impl" = type { %"struct.std::_Vector_base<Edge *, std::allocator<Edge *>>::_Vector_impl_data" }
%"struct.std::_Vector_base<Edge *, std::allocator<Edge *>>::_Vector_impl_data" = type { ptr, ptr, ptr }
%"class.std::vector.3" = type { %"struct.std::_Vector_base.4" }
%"struct.std::_Vector_base.4" = type { %"struct.std::_Vector_base<const Node *, std::allocator<const Node *>>::_Vector_impl" }
%"struct.std::_Vector_base<const Node *, std::allocator<const Node *>>::_Vector_impl" = type { %"struct.std::_Vector_base<const Node *, std::allocator<const Node *>>::_Vector_impl_data" }
%"struct.std::_Vector_base<const Node *, std::allocator<const Node *>>::_Vector_impl_data" = type { ptr, ptr, ptr }
%"class.std::__cxx11::basic_string" = type { %"struct.std::__cxx11::basic_string<char>::_Alloc_hider", i64, %union.anon }
%"struct.std::__cxx11::basic_string<char>::_Alloc_hider" = type { ptr }
%union.anon = type { i64, [8 x i8] }
%"struct.std::_Rb_tree_iterator" = type { ptr }
%"struct.std::pair.19" = type <{ ptr, i32, [4 x i8] }>
%struct.Edge = type { ptr, ptr, %"class.std::vector.11", %"class.std::vector.11", %"class.std::vector.11", ptr, ptr, i32, i64, i64, i8, i8, i8, i8, i64, i32, i32, i32, i64 }
%"class.std::vector.11" = type { %"struct.std::_Vector_base.12" }
%"struct.std::_Vector_base.12" = type { %"struct.std::_Vector_base<Node *, std::allocator<Node *>>::_Vector_impl" }
%"struct.std::_Vector_base<Node *, std::allocator<Node *>>::_Vector_impl" = type { %"struct.std::_Vector_base<Node *, std::allocator<Node *>>::_Vector_impl_data" }
%"struct.std::_Vector_base<Node *, std::allocator<Node *>>::_Vector_impl_data" = type { ptr, ptr, ptr }
%struct.Pool = type { %"class.std::__cxx11::basic_string", i32, i32, %"class.std::set.45" }
%"class.std::set.45" = type { %"class.std::_Rb_tree.46" }
%"class.std::_Rb_tree.46" = type { %"struct.std::_Rb_tree<Edge *, Edge *, std::_Identity<Edge *>, Pool::WeightedEdgeCmp>::_Rb_tree_impl" }
%"struct.std::_Rb_tree<Edge *, Edge *, std::_Identity<Edge *>, Pool::WeightedEdgeCmp>::_Rb_tree_impl" = type { [8 x i8], %"struct.std::_Rb_tree_header" }
%"struct.std::_Rb_tree_node" = type { %"struct.std::_Rb_tree_node_base", %"struct.__gnu_cxx::__aligned_membuf" }
%"struct.__gnu_cxx::__aligned_membuf" = type { [16 x i8] }

; Function Attrs: mustprogress nounwind uwtable
define linkonce_odr dso_local noundef ptr @_ZN9__gnu_cxx16__aligned_membufISt4pairIKP4EdgeN4Plan4WantEEE7_M_addrEv(ptr noundef nonnull align 8 dereferenceable(16) %0) #1 comdat align 2 {
  %2 = alloca ptr, align 8
  store ptr %0, ptr %2, align 8, !tbaa !396
  %3 = load ptr, ptr %2, align 8
  %4 = getelementptr inbounds nuw %"struct.__gnu_cxx::__aligned_membuf", ptr %3, i32 0, i32 0
  ret ptr %4
}

; Function Attrs: mustprogress nounwind uwtable
define linkonce_odr dso_local noundef ptr @_ZN9__gnu_cxx16__aligned_membufISt4pairIKP4EdgeN4Plan4WantEEE6_M_ptrEv(ptr noundef nonnull align 8 dereferenceable(16) %0) #1 comdat align 2 {
  %2 = alloca ptr, align 8
  store ptr %0, ptr %2, align 8, !tbaa !396
  %3 = load ptr, ptr %2, align 8
  %4 = call noundef ptr @_ZN9__gnu_cxx16__aligned_membufISt4pairIKP4EdgeN4Plan4WantEEE7_M_addrEv(ptr noundef nonnull align 8 dereferenceable(16) %3) #7
  ret ptr %4
}

; Function Attrs: mustprogress nounwind uwtable
define linkonce_odr dso_local noundef ptr @_ZNSt13_Rb_tree_nodeISt4pairIKP4EdgeN4Plan4WantEEE9_M_valptrEv(ptr noundef nonnull align 8 dereferenceable(48) %0) #1 comdat align 2 {
  %2 = alloca ptr, align 8
  store ptr %0, ptr %2, align 8, !tbaa !389
  %3 = load ptr, ptr %2, align 8
  %4 = getelementptr inbounds nuw %"struct.std::_Rb_tree_node", ptr %3, i32 0, i32 1
  %5 = call noundef ptr @_ZN9__gnu_cxx16__aligned_membufISt4pairIKP4EdgeN4Plan4WantEEE6_M_ptrEv(ptr noundef nonnull align 8 dereferenceable(16) %4) #7
  ret ptr %5
}

; Function Attrs: mustprogress nounwind uwtable
define linkonce_odr dso_local noundef zeroext i1 @_ZNK4Pool15ShouldDelayEdgeEv(ptr noundef nonnull align 8 dereferenceable(88) %0) #1 comdat align 2 {
  %2 = alloca ptr, align 8
  store ptr %0, ptr %2, align 8, !tbaa !144
  %3 = load ptr, ptr %2, align 8
  %4 = getelementptr inbounds nuw %struct.Pool, ptr %3, i32 0, i32 2
  %5 = load i32, ptr %4, align 4, !tbaa !146
  %6 = icmp ne i32 %5, 0
  ret i1 %6
}

; Function Attrs: mustprogress nounwind uwtable
define linkonce_odr dso_local noundef ptr @_ZNK4Edge4poolEv(ptr noundef nonnull align 8 dereferenceable(168) %0) #1 comdat align 2 {
  %2 = alloca ptr, align 8
  store ptr %0, ptr %2, align 8, !tbaa !55
  %3 = load ptr, ptr %2, align 8
  %4 = getelementptr inbounds nuw %struct.Edge, ptr %3, i32 0, i32 1
  %5 = load ptr, ptr %4, align 8, !tbaa !145
  ret ptr %5
}

; Function Attrs: mustprogress nounwind uwtable
define linkonce_odr dso_local noundef ptr @_ZNKSt17_Rb_tree_iteratorISt4pairIKP4EdgeN4Plan4WantEEEptEv(ptr noundef nonnull align 8 dereferenceable(8) %0) #1 comdat align 2 {
  %2 = alloca ptr, align 8
  store ptr %0, ptr %2, align 8, !tbaa !97
  %3 = load ptr, ptr %2, align 8
  %4 = getelementptr inbounds nuw %"struct.std::_Rb_tree_iterator", ptr %3, i32 0, i32 0
  %5 = load ptr, ptr %4, align 8, !tbaa !99
  %6 = call noundef ptr @_ZNSt13_Rb_tree_nodeISt4pairIKP4EdgeN4Plan4WantEEE9_M_valptrEv(ptr noundef nonnull align 8 dereferenceable(48) %5)
  ret ptr %6
}

; Function Attrs: mustprogress uwtable
define dso_local void @_ZN4Plan12ScheduleWorkESt17_Rb_tree_iteratorISt4pairIKP4EdgeNS_4WantEEE(ptr noundef nonnull align 8 dereferenceable(120) %0, ptr %1) #0 align 2 {
  %3 = alloca %"struct.std::_Rb_tree_iterator", align 8
  %4 = alloca ptr, align 8
  %5 = alloca ptr, align 8
  %6 = alloca ptr, align 8
  %7 = getelementptr inbounds nuw %"struct.std::_Rb_tree_iterator", ptr %3, i32 0, i32 0
  store ptr %1, ptr %7, align 8
  store ptr %0, ptr %4, align 8, !tbaa !4
  %8 = load ptr, ptr %4, align 8
  %9 = call noundef ptr @_ZNKSt17_Rb_tree_iteratorISt4pairIKP4EdgeN4Plan4WantEEEptEv(ptr noundef nonnull align 8 dereferenceable(8) %3) #7
  %10 = getelementptr inbounds nuw %"struct.std::pair.19", ptr %9, i32 0, i32 1
  %11 = load i32, ptr %10, align 8, !tbaa !143
  %12 = icmp eq i32 %11, 2
  br i1 %12, label %13, label %14

13:                                               ; preds = %2
  br label %34

14:                                               ; preds = %2
  %15 = call noundef ptr @_ZNKSt17_Rb_tree_iteratorISt4pairIKP4EdgeN4Plan4WantEEEptEv(ptr noundef nonnull align 8 dereferenceable(8) %3) #7
  %16 = getelementptr inbounds nuw %"struct.std::pair.19", ptr %15, i32 0, i32 1
  store i32 2, ptr %16, align 8, !tbaa !143
  call void @llvm.lifetime.start.p0(i64 8, ptr %5) #7
  %17 = call noundef ptr @_ZNKSt17_Rb_tree_iteratorISt4pairIKP4EdgeN4Plan4WantEEEptEv(ptr noundef nonnull align 8 dereferenceable(8) %3) #7
  %18 = getelementptr inbounds nuw %"struct.std::pair.19", ptr %17, i32 0, i32 0
  %19 = load ptr, ptr %18, align 8, !tbaa !92
  store ptr %19, ptr %5, align 8, !tbaa !55
  call void @llvm.lifetime.start.p0(i64 8, ptr %6) #7
  %20 = load ptr, ptr %5, align 8, !tbaa !55
  %21 = call noundef ptr @_ZNK4Edge4poolEv(ptr noundef nonnull align 8 dereferenceable(168) %20)
  store ptr %21, ptr %6, align 8, !tbaa !144
  %22 = load ptr, ptr %6, align 8, !tbaa !144
  %23 = call noundef zeroext i1 @_ZNK4Pool15ShouldDelayEdgeEv(ptr noundef nonnull align 8 dereferenceable(88) %22)
  br i1 %23, label %24, label %29

24:                                               ; preds = %14
  %25 = load ptr, ptr %6, align 8, !tbaa !144
  %26 = load ptr, ptr %5, align 8, !tbaa !55
  call void @_ZN4Pool9DelayEdgeEP4Edge(ptr noundef nonnull align 8 dereferenceable(88) %25, ptr noundef %26)
  %27 = load ptr, ptr %6, align 8, !tbaa !144
  %28 = getelementptr inbounds nuw %struct.Plan, ptr %8, i32 0, i32 1
  call void @_ZN4Pool18RetrieveReadyEdgesEP17EdgePriorityQueue(ptr noundef nonnull align 8 dereferenceable(88) %27, ptr noundef %28)
  br label %33

29:                                               ; preds = %14
  %30 = load ptr, ptr %6, align 8, !tbaa !144
  %31 = load ptr, ptr %5, align 8, !tbaa !55
  call void @_ZN4Pool13EdgeScheduledERK4Edge(ptr noundef nonnull align 8 dereferenceable(88) %30, ptr noundef nonnull align 8 dereferenceable(168) %31)
  %32 = getelementptr inbounds nuw %struct.Plan, ptr %8, i32 0, i32 1
  call void @_ZNSt14priority_queueIP4EdgeSt6vectorIS1_SaIS1_EE16EdgePriorityLessE4pushERKS1_(ptr noundef nonnull align 8 dereferenceable(25) %32, ptr noundef nonnull align 8 dereferenceable(8) %5)
  br label %33

33:                                               ; preds = %29, %24
  call void @llvm.lifetime.end.p0(i64 8, ptr %6) #7
  call void @llvm.lifetime.end.p0(i64 8, ptr %5) #7
  br label %34

34:                                               ; preds = %33, %13
  ret void
}