; Function Attrs: mustprogress uwtable
define dso_local void @_ZN4Plan12ScheduleWorkESt17_Rb_tree_iteratorISt4pairIKP4EdgeNS_4WantEEE(ptr noundef nonnull align 8 dereferenceable(120) %0, ptr captures(none) %1) local_unnamed_addr #2 align 2 {
  %3 = alloca ptr, align 8
  %4 = getelementptr inbounds nuw i8, ptr %1, i64 40
  %5 = load i32, ptr %4, align 8, !tbaa !95
  %6 = icmp eq i32 %5, 2
  br i1 %6, label %18, label %7

7:                                                ; preds = %2
  %8 = getelementptr inbounds nuw i8, ptr %1, i64 32
  store i32 2, ptr %4, align 8, !tbaa !95
  call void @llvm.lifetime.start.p0(i64 8, ptr nonnull %3) #29
  %9 = load ptr, ptr %8, align 8, !tbaa !92
  store ptr %9, ptr %3, align 8, !tbaa !88
  %10 = getelementptr inbounds nuw i8, ptr %9, i64 8
  %11 = load ptr, ptr %10, align 8, !tbaa !140
  %12 = getelementptr inbounds nuw i8, ptr %11, i64 36
  %13 = load i32, ptr %12, align 4, !tbaa !141
  %.not = icmp eq i32 %13, 0
  %14 = getelementptr inbounds nuw i8, ptr %0, i64 48
  br i1 %.not, label %16, label %15

15:                                               ; preds = %7
  tail call void @_ZN4Pool9DelayEdgeEP4Edge(ptr noundef nonnull align 8 dereferenceable(88) %11, ptr noundef nonnull %9)
  tail call void @_ZN4Pool18RetrieveReadyEdgesEP17EdgePriorityQueue(ptr noundef nonnull align 8 dereferenceable(88) %11, ptr noundef nonnull %14)
  br label %17

16:                                               ; preds = %7
  tail call void @_ZN4Pool13EdgeScheduledERK4Edge(ptr noundef nonnull align 8 dereferenceable(88) %11, ptr noundef nonnull align 8 dereferenceable(168) %9)
  call void @_ZNSt14priority_queueIP4EdgeSt6vectorIS1_SaIS1_EE16EdgePriorityLessE4pushERKS1_(ptr noundef nonnull align 8 dereferenceable(25) %14, ptr noundef nonnull align 8 dereferenceable(8) %3)
  br label %17

17:                                               ; preds = %16, %15
  call void @llvm.lifetime.end.p0(i64 8, ptr nonnull %3) #29
  br label %18

18:                                               ; preds = %2, %17
  ret void
}